target datalayout = "e-m:e-p270:32:32-p271:32:32-p272:64:64-i64:64-i128:128-f80:128-n8:16:32:64-S128"
target triple = "x86_64-pc-linux-gnu"

%class.JVMCIObject = type <{ ptr, i8, [7 x i8] }>

@.str.106 = private unnamed_addr constant [52 x i8] c"Exception during HotSpotJVMCIRuntime initialization\00", align 1
@_ZN6Thread12_thr_currentE = external thread_local global ptr, align 8

; Function Attrs: mustprogress nounwind uwtable
define linkonce_odr hidden noundef ptr @_ZN6Thread15current_or_nullEv() #1 comdat align 2 {
  %1 = call align 8 ptr @llvm.threadlocal.address.p0(ptr align 8 @_ZN6Thread12_thr_currentE)
  %2 = load ptr, ptr %1, align 8
  ret ptr %2
}

; Function Attrs: mustprogress nounwind uwtable
define linkonce_odr hidden noundef ptr @_ZN10JavaThread4castEP6Thread(ptr noundef %0) #1 comdat align 2 {
  %2 = alloca ptr, align 8
  store ptr %0, ptr %2, align 8
  %3 = load ptr, ptr %2, align 8
  ret ptr %3
}

; Function Attrs: mustprogress nounwind uwtable
define linkonce_odr hidden noundef ptr @_ZN6Thread7currentEv() #1 comdat align 2 {
  %1 = alloca ptr, align 8
  %2 = call noundef ptr @_ZN6Thread15current_or_nullEv()
  store ptr %2, ptr %1, align 8
  %3 = load ptr, ptr %1, align 8
  ret ptr %3
}

; Function Attrs: mustprogress nounwind uwtable
define linkonce_odr hidden noundef ptr @_ZN10JavaThread7currentEv() #1 comdat align 2 {
  %1 = call noundef ptr @_ZN6Thread7currentEv()
  %2 = call noundef ptr @_ZN10JavaThread4castEP6Thread(ptr noundef %1)
  ret ptr %2
}

; Function Attrs: mustprogress nounwind uwtable
define hidden noundef zeroext i1 @_ZN12JVMCIRuntime15is_gc_supportedEP8JVMCIEnvN13CollectedHeap4NameE(ptr noundef nonnull align 8 dereferenceable(93) %0, ptr noundef %1, i32 noundef %2) #1 align 2 {
  %4 = alloca ptr, align 8
  %5 = alloca ptr, align 8
  %6 = alloca i32, align 4
  %7 = alloca ptr, align 8
  %8 = alloca ptr, align 8
  %9 = alloca %class.JVMCIObject, align 8
  %10 = alloca %class.JVMCIObject, align 8
  store ptr %0, ptr %4, align 8
  store ptr %1, ptr %5, align 8
  store i32 %2, ptr %6, align 4
  %11 = load ptr, ptr %4, align 8
  %12 = call noundef ptr @_ZN10JavaThread7currentEv()
  store ptr %12, ptr %7, align 8
  %13 = load ptr, ptr %7, align 8
  store ptr %13, ptr %8, align 8
  %14 = load ptr, ptr %5, align 8
  %15 = call { ptr, i8 } @_ZN12JVMCIRuntime23get_HotSpotJVMCIRuntimeEP8JVMCIEnv(ptr noundef nonnull align 8 dereferenceable(93) %11, ptr noundef %14)
  %16 = getelementptr inbounds { ptr, i8 }, ptr %9, i32 0, i32 0
  %17 = extractvalue { ptr, i8 } %15, 0
  store ptr %17, ptr %16, align 8
  %18 = getelementptr inbounds { ptr, i8 }, ptr %9, i32 0, i32 1
  %19 = extractvalue { ptr, i8 } %15, 1
  store i8 %19, ptr %18, align 8
  %20 = load ptr, ptr %5, align 8
  %21 = call noundef zeroext i8 @_ZN8JVMCIEnv21has_pending_exceptionEv(ptr noundef nonnull align 8 dereferenceable(64) %20)
  %22 = icmp ne i8 %21, 0
  br i1 %22, label %23, label %25

23:                                               ; preds = %3
  %24 = load ptr, ptr %5, align 8
  call void @_ZN12JVMCIRuntime15fatal_exceptionEP8JVMCIEnvPKc(ptr noundef %24, ptr noundef @.str.106)
  br label %25

25:                                               ; preds = %23, %3
  %26 = load ptr, ptr %5, align 8
  call void @llvm.memcpy.p0.p0.i64(ptr align 8 %10, ptr align 8 %9, i64 16, i1 false)
  %27 = load i32, ptr %6, align 4
  %28 = getelementptr inbounds { ptr, i8 }, ptr %10, i32 0, i32 0
  %29 = load ptr, ptr %28, align 8
  %30 = getelementptr inbounds { ptr, i8 }, ptr %10, i32 0, i32 1
  %31 = load i8, ptr %30, align 8
  %32 = call noundef zeroext i8 @_ZN8JVMCIEnv38call_HotSpotJVMCIRuntime_isGCSupportedE11JVMCIObjecti(ptr noundef nonnull align 8 dereferenceable(64) %26, ptr %29, i8 %31, i32 noundef %27)
  %33 = icmp ne i8 %32, 0
  ret i1 %33
}