; Function Attrs: mustprogress nounwind uwtable
define hidden noundef zeroext i1 @_ZN12JVMCIRuntime15is_gc_supportedEP8JVMCIEnvN13CollectedHeap4NameE(ptr nocapture noundef nonnull align 8 dereferenceable(93) %0, ptr noundef %1, i32 noundef %2) local_unnamed_addr #0 align 2 {
  %4 = tail call { ptr, i8 } @_ZN12JVMCIRuntime23get_HotSpotJVMCIRuntimeEP8JVMCIEnv(ptr noundef nonnull align 8 dereferenceable(93) %0, ptr noundef %1)
  %5 = tail call noundef zeroext i8 @_ZN8JVMCIEnv21has_pending_exceptionEv(ptr noundef nonnull align 8 dereferenceable(64) %1) #15
  %.not = icmp eq i8 %5, 0
  br i1 %.not, label %7, label %6

6:                                                ; preds = %3
  tail call void @_ZN12JVMCIRuntime15fatal_exceptionEP8JVMCIEnvPKc(ptr noundef nonnull %1, ptr noundef nonnull @.str.106)
  unreachable

7:                                                ; preds = %3
  %8 = extractvalue { ptr, i8 } %4, 1
  %9 = extractvalue { ptr, i8 } %4, 0
  %10 = tail call noundef zeroext i8 @_ZN8JVMCIEnv38call_HotSpotJVMCIRuntime_isGCSupportedE11JVMCIObjecti(ptr noundef nonnull align 8 dereferenceable(64) %1, ptr %9, i8 %8, i32 noundef %2) #15
  %11 = icmp ne i8 %10, 0
  ret i1 %11
}